Certificate:
    Data:
        Version: 3 (0x2)
        Serial Number: 4096 (0x1000)
    Signature Algorithm: sha1WithRSAEncryption
        Issuer: C=US, ST=California, O=CoreOS Inc, OU=CoreOS Internet Authority, CN=CoreOS Internet Authority
        Validity
            Not Before: Jun 25 03:27:09 2013 GMT
            Not After : Jun 23 03:27:09 2023 GMT
        Subject: C=US, ST=California, O=CoreOS Inc, OU=CoreOS Internet Authority, CN=CoreOS Internet Authority
        Subject Public Key Info:
            Public Key Algorithm: rsaEncryption
                Public-Key: (2048 bit)
                Modulus:
                    00:c9:c1:4b:91:85:5d:15:d8:2e:6c:6a:8f:06:46:
                    6d:11:56:9e:62:7d:ed:22:8b:80:b2:ea:b7:89:0f:
                    01:90:06:3e:81:9f:f4:d8:d3:88:4e:c4:98:12:1e:
                    d8:fd:68:68:85:00:c1:b3:70:39:21:95:8d:ed:e2:
                    e4:9b:d9:bf:01:21:8f:50:3b:9f:dc:38:db:94:03:
                    8b:38:30:02:2f:29:29:0f:91:8d:7f:f6:59:9d:f3:
                    97:36:be:0b:b8:3c:9c:23:e1:da:60:f3:04:34:ca:
                    af:7b:4e:b7:0d:bb:d6:83:e8:43:30:d3:c5:8d:64:
                    28:c8:cc:6a:05:ec:db:d4:52:70:06:5c:8b:08:2d:
                    6f:5e:b8:36:4f:e0:fb:c1:93:58:e0:7d:c7:30:69:
                    a2:f9:de:0e:a6:8a:62:f4:e8:76:e3:7b:b9:3c:da:
                    73:20:91:64:70:a0:fe:33:8d:4b:93:d3:7a:fa:9c:
                    8d:fb:45:6b:8d:92:37:b5:a6:75:d6:b9:e3:c2:63:
                    4f:9c:1d:d6:d0:e1:ac:25:ac:55:f0:de:8f:f7:3a:
                    8b:ae:5f:e1:66:b5:39:23:50:8d:96:d1:c5:7f:9c:
                    33:f2:99:55:cb:b8:3b:87:da:26:b1:d4:b6:e4:97:
                    59:0f:fe:15:77:4e:78:c6:54:5a:41:3f:c2:be:97:
                    eb:a3
                Exponent: 65537 (0x10001)
        X509v3 extensions:
            X509v3 Subject Key Identifier: 
                2A:39:9F:CE:B1:B5:C5:C2:C4:38:B6:A0:41:A1:B7:17:06:64:19:2A
            X509v3 Authority Key Identifier: 
                keyid:2A:39:9F:CE:B1:B5:C5:C2:C4:38:B6:A0:41:A1:B7:17:06:64:19:2A

            X509v3 Basic Constraints: critical
                CA:TRUE
            X509v3 Subject Alternative Name: 
                <EMPTY>

    Signature Algorithm: sha1WithRSAEncryption
         59:8d:74:00:db:92:2e:22:1a:0c:2d:10:ea:c4:4a:a9:3e:d4:
         9c:5c:6b:1c:14:38:84:fa:db:e8:1f:10:87:e8:78:61:c4:86:
         d4:ab:36:7f:1c:80:52:2f:f7:38:5a:e6:f0:d9:0b:34:52:df:
         00:35:90:f1:1d:aa:f4:19:28:27:63:73:96:0e:af:60:54:40:
         da:ff:41:e5:c5:a9:1d:84:ae:41:93:ee:f4:bf:f0:a7:d0:20:
         e6:9a:3e:6e:db:bd:e3:5f:f1:83:ca:3c:e9:79:78:cb:24:6b:
         f6:62:6d:26:5d:2e:df:c5:8a:4f:6a:8e:9c:f1:ec:a5:a4:29:
         1a:02:df:a4:fb:e7:f9:17:96:66:95:ee:24:0e:d8:e3:5f:c7:
         16:4f:7e:20:a5:62:1c:d9:e0:fb:6c:c6:93:56:d3:58:3d:5e:
         55:45:90:c5:f1:cc:97:de:f8:e3:8e:17:0d:72:97:a5:0d:12:
         ec:bd:22:a7:18:d9:5d:e3:d1:9a:ec:d2:90:e2:a0:bb:eb:ef:
         76:2b:9f:6c:83:f8:2a:df:50:56:b7:09:33:38:9e:85:63:86:
         f6:bc:f5:e0:5e:40:36:90:cc:ab:99:23:e2:96:df:c6:17:a7:
         c4:df:4a:5b:40:42:e6:10:fb:8b:44:ee:16:c1:a9:bb:f7:22:
         f0:cc:84:3b
-----BEGIN CERTIFICATE-----
MIID2DCCAsCgAwIBAgICEAAwDQYJKoZIhvcNAQEFBQAwfzELMAkGA1UEBhMCVVMx
EzARBgNVBAgMCkNhbGlmb3JuaWExEzARBgNVBAoMCkNvcmVPUyBJbmMxIjAgBgNV
BAsMGUNvcmVPUyBJbnRlcm5ldCBBdXRob3JpdHkxIjAgBgNVBAMMGUNvcmVPUyBJ
bnRlcm5ldCBBdXRob3JpdHkwHhcNMTMwNjI1MDMyNzA5WhcNMjMwNjIzMDMyNzA5
WjB/MQswCQYDVQQGEwJVUzETMBEGA1UECAwKQ2FsaWZvcm5pYTETMBEGA1UECgwK
Q29yZU9TIEluYzEiMCAGA1UECwwZQ29yZU9TIEludGVybmV0IEF1dGhvcml0eTEi
MCAGA1UEAwwZQ29yZU9TIEludGVybmV0IEF1dGhvcml0eTCCASIwDQYJKoZIhvcN
AQEBBQADggEPADCCAQoCggEBAMnBS5GFXRXYLmxqjwZGbRFWnmJ97SKLgLLqt4kP
AZAGPoGf9NjTiE7EmBIe2P1oaIUAwbNwOSGVje3i5JvZvwEhj1A7n9w425QDizgw
Ai8pKQ+RjX/2WZ3zlza+C7g8nCPh2mDzBDTKr3tOtw271oPoQzDTxY1kKMjMagXs
29RScAZciwgtb164Nk/g+8GTWOB9xzBpovneDqaKYvToduN7uTzacyCRZHCg/jON
S5PTevqcjftFa42SN7Wmdda548JjT5wd1tDhrCWsVfDej/c6i65f4Wa1OSNQjZbR
xX+cM/KZVcu4O4faJrHUtuSXWQ/+FXdOeMZUWkE/wr6X66MCAwEAAaNeMFwwHQYD
VR0OBBYEFCo5n86xtcXCxDi2oEGhtxcGZBkqMB8GA1UdIwQYMBaAFCo5n86xtcXC
xDi2oEGhtxcGZBkqMA8GA1UdEwEB/wQFMAMBAf8wCQYDVR0RBAIwADANBgkqhkiG
9w0BAQUFAAOCAQEAWY10ANuSLiIaDC0Q6sRKqT7UnFxrHBQ4hPrb6B8Qh+h4YcSG
1Ks2fxyAUi/3OFrm8NkLNFLfADWQ8R2q9BkoJ2Nzlg6vYFRA2v9B5cWpHYSuQZPu
9L/wp9Ag5po+btu941/xg8o86Xl4yyRr9mJtJl0u38WKT2qOnPHspaQpGgLfpPvn
+ReWZpXuJA7Y41/HFk9+IKViHNng+2zGk1bTWD1eVUWQxfHMl974444XDXKXpQ0S
7L0ipxjZXePRmuzSkOKgu+vvdiufbIP4Kt9QVrcJMziehWOG9rz14F5ANpDMq5kj
4pbfxhenxN9KW0BC5hD7i0TuFsGpu/ci8MyEOw==
-----END CERTIFICATE-----
