Certificate:
    Data:
        Version: 3 (0x2)
        Serial Number: 4097 (0x1001)
    Signature Algorithm: sha1WithRSAEncryption
        Issuer: C=US, ST=California, O=CoreOS Inc, OU=CoreOS Internet Authority, CN=CoreOS Internet Authority
        Validity
            Not Before: Jun 25 03:32:16 2013 GMT
            Not After : Jun 23 03:32:16 2023 GMT
        Subject: C=US, ST=California, O=CoreOS Inc, OU=CoreOS Internet Services, CN=CoreOS Internet Services
        Subject Public Key Info:
            Public Key Algorithm: rsaEncryption
                Public-Key: (2048 bit)
                Modulus:
                    00:9b:f9:b7:8b:38:2d:40:e3:5c:f7:cd:1e:a2:d4:
                    46:d1:8b:57:87:9f:54:8b:01:a9:bc:62:1b:9c:d5:
                    af:3c:16:4c:6b:b0:c3:3b:30:bb:1b:6c:59:1d:54:
                    e9:0c:29:c1:d1:d7:ea:2a:47:0f:f9:73:cd:ac:05:
                    31:c5:bb:92:83:68:1e:4b:c9:0e:5f:a0:09:b3:5f:
                    f9:80:f1:3f:aa:59:50:62:f0:f1:cc:25:82:43:55:
                    5f:6d:43:6c:c2:66:58:92:84:23:ec:ed:90:2e:8a:
                    35:35:cc:ad:36:40:67:76:04:8c:a3:8e:1b:a6:76:
                    c0:99:89:67:64:35:b1:76:7f:24:05:f0:90:de:6b:
                    6a:63:8a:7b:94:9d:f3:e6:bd:23:27:f3:f6:05:d7:
                    d7:8d:49:15:cb:c2:d6:ea:c7:cf:c3:82:8e:43:63:
                    dd:c5:24:65:c3:25:1d:9a:60:fc:75:ab:4b:ad:25:
                    2e:a2:d2:e1:d0:eb:7f:cb:52:26:f8:7c:99:9d:34:
                    35:e4:33:05:d4:64:bf:28:3c:63:63:e2:b6:a1:31:
                    27:a7:28:af:dc:d9:0e:41:b7:2f:48:95:ee:5e:99:
                    5c:6b:d5:4e:fc:e0:0f:08:94:ba:36:24:23:9b:cb:
                    06:c4:49:81:cb:a1:12:96:f8:f9:a6:c1:65:52:2e:
                    6b:59
                Exponent: 65537 (0x10001)
        X509v3 extensions:
            X509v3 Basic Constraints: critical
                CA:TRUE
            X509v3 Subject Key Identifier: 
                A7:A4:26:EF:DF:C4:E0:60:B2:67:E0:47:08:10:9F:56:E9:83:4B:72
            X509v3 Authority Key Identifier: 
                keyid:2A:39:9F:CE:B1:B5:C5:C2:C4:38:B6:A0:41:A1:B7:17:06:64:19:2A

            X509v3 CRL Distribution Points: 

                Full Name:
                  URI:http://pki.coreos.com/coreos-ca.crl

    Signature Algorithm: sha1WithRSAEncryption
         0a:04:d9:5a:f9:db:cd:7e:11:3a:dc:b0:0c:34:66:ea:9d:c1:
         dc:f1:d5:88:73:4d:c5:ad:8a:53:b8:9d:c1:6f:02:f7:1a:c1:
         0f:70:5a:27:d2:b3:c6:16:5e:5a:68:22:04:91:02:1f:0c:2d:
         95:7f:72:68:c0:32:ee:b2:64:53:f3:8c:25:12:51:1d:15:7c:
         e3:a2:86:2d:ab:54:38:4d:9c:38:44:03:35:1d:f3:bc:14:f9:
         3a:6c:67:6f:54:20:39:be:41:37:54:4c:38:85:81:c6:54:af:
         6b:9b:d8:3f:8b:e0:29:98:b2:62:d4:a3:dd:26:3f:24:b7:eb:
         f7:be:78:fb:5b:01:c3:b0:f0:b9:4d:31:a4:d1:e0:77:1a:e0:
         7c:c2:93:54:98:e7:91:14:19:5b:4b:43:35:09:2d:73:64:99:
         ed:73:0f:1e:78:94:db:32:a1:59:64:d5:4b:f0:ca:01:2f:01:
         d9:94:8b:b0:03:bf:e7:d8:2c:3f:d8:6b:f0:06:9f:3c:4f:0a:
         93:ce:a7:30:f8:4f:30:50:71:fc:b7:0a:b0:67:02:53:35:c6:
         0f:93:44:71:b6:aa:74:a8:ab:a6:7e:eb:6d:d2:37:23:a9:5d:
         cb:72:ff:53:9f:00:f8:56:d2:1c:c4:57:7e:84:bc:f0:52:90:
         a9:02:4a:60
-----BEGIN CERTIFICATE-----
MIIEAzCCAuugAwIBAgICEAEwDQYJKoZIhvcNAQEFBQAwfzELMAkGA1UEBhMCVVMx
EzARBgNVBAgMCkNhbGlmb3JuaWExEzARBgNVBAoMCkNvcmVPUyBJbmMxIjAgBgNV
BAsMGUNvcmVPUyBJbnRlcm5ldCBBdXRob3JpdHkxIjAgBgNVBAMMGUNvcmVPUyBJ
bnRlcm5ldCBBdXRob3JpdHkwHhcNMTMwNjI1MDMzMjE2WhcNMjMwNjIzMDMzMjE2
WjB9MQswCQYDVQQGEwJVUzETMBEGA1UECAwKQ2FsaWZvcm5pYTETMBEGA1UECgwK
Q29yZU9TIEluYzEhMB8GA1UECwwYQ29yZU9TIEludGVybmV0IFNlcnZpY2VzMSEw
HwYDVQQDDBhDb3JlT1MgSW50ZXJuZXQgU2VydmljZXMwggEiMA0GCSqGSIb3DQEB
AQUAA4IBDwAwggEKAoIBAQCb+beLOC1A41z3zR6i1EbRi1eHn1SLAam8Yhuc1a88
FkxrsMM7MLsbbFkdVOkMKcHR1+oqRw/5c82sBTHFu5KDaB5LyQ5foAmzX/mA8T+q
WVBi8PHMJYJDVV9tQ2zCZliShCPs7ZAuijU1zK02QGd2BIyjjhumdsCZiWdkNbF2
fyQF8JDea2pjinuUnfPmvSMn8/YF19eNSRXLwtbqx8/Dgo5DY93FJGXDJR2aYPx1
q0utJS6i0uHQ63/LUib4fJmdNDXkMwXUZL8oPGNj4rahMSenKK/c2Q5Bty9Ile5e
mVxr1U784A8IlLo2JCObywbESYHLoRKW+PmmwWVSLmtZAgMBAAGjgYowgYcwDwYD
VR0TAQH/BAUwAwEB/zAdBgNVHQ4EFgQUp6Qm79/E4GCyZ+BHCBCfVumDS3IwHwYD
VR0jBBgwFoAUKjmfzrG1xcLEOLagQaG3FwZkGSowNAYDVR0fBC0wKzApoCegJYYj
aHR0cDovL3BraS5jb3Jlb3MuY29tL2NvcmVvcy1jYS5jcmwwDQYJKoZIhvcNAQEF
BQADggEBAAoE2Vr5281+ETrcsAw0Zuqdwdzx1YhzTcWtilO4ncFvAvcawQ9wWifS
s8YWXlpoIgSRAh8MLZV/cmjAMu6yZFPzjCUSUR0VfOOihi2rVDhNnDhEAzUd87wU
+TpsZ29UIDm+QTdUTDiFgcZUr2ub2D+L4CmYsmLUo90mPyS36/e+ePtbAcOw8LlN
MaTR4Hca4HzCk1SY55EUGVtLQzUJLXNkme1zDx54lNsyoVlk1UvwygEvAdmUi7AD
v+fYLD/Ya/AGnzxPCpPOpzD4TzBQcfy3CrBnAlM1xg+TRHG2qnSoq6Z+623SNyOp
Xcty/1OfAPhW0hzEV36EvPBSkKkCSmA=
-----END CERTIFICATE-----
